; Function Attrs: nounwind uwtable
define void @_ZTv0_n24_N2cv8saliency30StaticSaliencySpectralResidualD1Ev(ptr noundef %0) unnamed_addr #6 align 2 {
  %2 = load ptr, ptr %0, align 8
  %3 = getelementptr inbounds i8, ptr %2, i64 -24
  %4 = load i64, ptr %3, align 8
  %5 = getelementptr inbounds i8, ptr %0, i64 %4
  %6 = getelementptr inbounds nuw i8, ptr %5, i64 16
  tail call void @_ZN2cv8saliency8SaliencyD2Ev(ptr noundef nonnull align 8 dereferenceable(40) %6, ptr noundef nonnull getelementptr inbounds nuw (i8, ptr @_ZTTN2cv8saliency30StaticSaliencySpectralResidualE, i64 48)) #17
  tail call void @_ZN2cv9AlgorithmD2Ev(ptr noundef nonnull align 8 dereferenceable(16) %5) #17
  ret void
}